target datalayout = "e-m:e-p270:32:32-p271:32:32-p272:64:64-i64:64-i128:128-f80:128-n8:16:32:64-S128"
target triple = "x86_64-pc-linux-gnu"

%struct.cache_time = type { i32, i32 }
%struct.object_id = type { [32 x i8], i32 }
%struct.cache_entry = type { %struct.hashmap_entry, %struct.stat_data, i32, i32, i32, i32, i32, %struct.object_id, [0 x i8] }
%struct.hashmap_entry = type { ptr, i32 }
%struct.stat_data = type { %struct.cache_time, %struct.cache_time, i32, i32, i32, i32, i32 }

; Function Attrs: nounwind uwtable
define internal i32 @cache_name_stage_compare(ptr noundef %0, i32 noundef %1, i32 noundef %2, ptr noundef %3, i32 noundef %4, i32 noundef %5) #0 {
  %7 = alloca i32, align 4
  %8 = alloca ptr, align 8
  %9 = alloca i32, align 4
  %10 = alloca i32, align 4
  %11 = alloca ptr, align 8
  %12 = alloca i32, align 4
  %13 = alloca i32, align 4
  %14 = alloca i32, align 4
  %15 = alloca i32, align 4
  store ptr %0, ptr %8, align 8, !tbaa !11
  store i32 %1, ptr %9, align 4, !tbaa !9
  store i32 %2, ptr %10, align 4, !tbaa !9
  store ptr %3, ptr %11, align 8, !tbaa !11
  store i32 %4, ptr %12, align 4, !tbaa !9
  store i32 %5, ptr %13, align 4, !tbaa !9
  call void @llvm.lifetime.start.p0(i64 4, ptr %14) #12
  %16 = load ptr, ptr %8, align 8, !tbaa !11
  %17 = load i32, ptr %9, align 4, !tbaa !9
  %18 = sext i32 %17 to i64
  %19 = load ptr, ptr %11, align 8, !tbaa !11
  %20 = load i32, ptr %12, align 4, !tbaa !9
  %21 = sext i32 %20 to i64
  %22 = call i32 @name_compare(ptr noundef %16, i64 noundef %18, ptr noundef %19, i64 noundef %21)
  store i32 %22, ptr %14, align 4, !tbaa !9
  %23 = load i32, ptr %14, align 4, !tbaa !9
  %24 = icmp ne i32 %23, 0
  br i1 %24, label %25, label %27

25:                                               ; preds = %6
  %26 = load i32, ptr %14, align 4, !tbaa !9
  store i32 %26, ptr %7, align 4
  store i32 1, ptr %15, align 4
  br label %38

27:                                               ; preds = %6
  %28 = load i32, ptr %10, align 4, !tbaa !9
  %29 = load i32, ptr %13, align 4, !tbaa !9
  %30 = icmp slt i32 %28, %29
  br i1 %30, label %31, label %32

31:                                               ; preds = %27
  store i32 -1, ptr %7, align 4
  store i32 1, ptr %15, align 4
  br label %38

32:                                               ; preds = %27
  %33 = load i32, ptr %10, align 4, !tbaa !9
  %34 = load i32, ptr %13, align 4, !tbaa !9
  %35 = icmp sgt i32 %33, %34
  br i1 %35, label %36, label %37

36:                                               ; preds = %32
  store i32 1, ptr %7, align 4
  store i32 1, ptr %15, align 4
  br label %38

37:                                               ; preds = %32
  store i32 0, ptr %7, align 4
  store i32 1, ptr %15, align 4
  br label %38

38:                                               ; preds = %37, %36, %31, %25
  call void @llvm.lifetime.end.p0(i64 4, ptr %14) #12
  %39 = load i32, ptr %7, align 4
  ret i32 %39
}

; Function Attrs: nounwind uwtable
define dso_local i32 @cmp_cache_name_compare(ptr noundef %0, ptr noundef %1) #0 {
  %3 = alloca ptr, align 8
  %4 = alloca ptr, align 8
  %5 = alloca ptr, align 8
  %6 = alloca ptr, align 8
  store ptr %0, ptr %3, align 8, !tbaa !64
  store ptr %1, ptr %4, align 8, !tbaa !64
  call void @llvm.lifetime.start.p0(i64 8, ptr %5) #12
  call void @llvm.lifetime.start.p0(i64 8, ptr %6) #12
  %7 = load ptr, ptr %3, align 8, !tbaa !64
  %8 = load ptr, ptr %7, align 8, !tbaa !29
  store ptr %8, ptr %5, align 8, !tbaa !29
  %9 = load ptr, ptr %4, align 8, !tbaa !64
  %10 = load ptr, ptr %9, align 8, !tbaa !29
  store ptr %10, ptr %6, align 8, !tbaa !29
  %11 = load ptr, ptr %5, align 8, !tbaa !29
  %12 = getelementptr inbounds nuw %struct.cache_entry, ptr %11, i32 0, i32 8
  %13 = getelementptr inbounds [0 x i8], ptr %12, i64 0, i64 0
  %14 = load ptr, ptr %5, align 8, !tbaa !29
  %15 = getelementptr inbounds nuw %struct.cache_entry, ptr %14, i32 0, i32 5
  %16 = load i32, ptr %15, align 8, !tbaa !9
  %17 = load ptr, ptr %5, align 8, !tbaa !29
  %18 = getelementptr inbounds nuw %struct.cache_entry, ptr %17, i32 0, i32 3
  %19 = load i32, ptr %18, align 8, !tbaa !9
  %20 = and i32 12288, %19
  %21 = lshr i32 %20, 12
  %22 = load ptr, ptr %6, align 8, !tbaa !29
  %23 = getelementptr inbounds nuw %struct.cache_entry, ptr %22, i32 0, i32 8
  %24 = getelementptr inbounds [0 x i8], ptr %23, i64 0, i64 0
  %25 = load ptr, ptr %6, align 8, !tbaa !29
  %26 = getelementptr inbounds nuw %struct.cache_entry, ptr %25, i32 0, i32 5
  %27 = load i32, ptr %26, align 8, !tbaa !9
  %28 = load ptr, ptr %6, align 8, !tbaa !29
  %29 = getelementptr inbounds nuw %struct.cache_entry, ptr %28, i32 0, i32 3
  %30 = load i32, ptr %29, align 8, !tbaa !9
  %31 = and i32 12288, %30
  %32 = lshr i32 %31, 12
  %33 = call i32 @cache_name_stage_compare(ptr noundef %13, i32 noundef %16, i32 noundef %21, ptr noundef %24, i32 noundef %27, i32 noundef %32)
  call void @llvm.lifetime.end.p0(i64 8, ptr %6) #12
  call void @llvm.lifetime.end.p0(i64 8, ptr %5) #12
  ret i32 %33
}