; Function Attrs: nounwind uwtable
define dso_local i32 @cmp_cache_name_compare(ptr noundef readonly captures(none) %0, ptr noundef readonly captures(none) %1) #0 {
  %3 = load ptr, ptr %0, align 8, !tbaa !25
  %4 = load ptr, ptr %1, align 8, !tbaa !25
  %5 = getelementptr inbounds nuw i8, ptr %3, i64 108
  %6 = getelementptr inbounds nuw i8, ptr %3, i64 64
  %7 = load i32, ptr %6, align 8, !tbaa !32
  %8 = getelementptr inbounds nuw i8, ptr %3, i64 56
  %9 = load i32, ptr %8, align 8, !tbaa !32
  %10 = lshr i32 %9, 12
  %11 = and i32 %10, 3
  %12 = getelementptr inbounds nuw i8, ptr %4, i64 108
  %13 = getelementptr inbounds nuw i8, ptr %4, i64 64
  %14 = load i32, ptr %13, align 8, !tbaa !32
  %15 = getelementptr inbounds nuw i8, ptr %4, i64 56
  %16 = load i32, ptr %15, align 8, !tbaa !32
  %17 = lshr i32 %16, 12
  %18 = and i32 %17, 3
  %19 = sext i32 %7 to i64
  %20 = sext i32 %14 to i64
  %21 = tail call i32 @name_compare(ptr noundef nonnull %5, i64 noundef %19, ptr noundef nonnull %12, i64 noundef %20) #30
  %.not.i = icmp eq i32 %21, 0
  br i1 %.not.i, label %22, label %cache_name_stage_compare.exit

22:                                               ; preds = %2
  %23 = icmp samesign ult i32 %11, %18
  br i1 %23, label %cache_name_stage_compare.exit, label %24

24:                                               ; preds = %22
  %25 = icmp samesign ugt i32 %11, %18
  %..i = zext i1 %25 to i32
  br label %cache_name_stage_compare.exit

cache_name_stage_compare.exit:                    ; preds = %2, %22, %24
  %.0.i = phi i32 [ %21, %2 ], [ -1, %22 ], [ %..i, %24 ]
  ret i32 %.0.i
}